; Function Attrs: mustprogress uwtable
define internal fastcc void @_ZN7tinyobjL11SplitStringERKNSt7__cxx1112basic_stringIcSt11char_traitsIcESaIcEEEccRSt6vectorIS5_SaIS5_EE(ptr noundef nonnull align 8 dereferenceable(32) %s, ptr noundef nonnull align 8 dereferenceable(24) %elems) unnamed_addr #3 personality ptr @__gxx_personality_v0 {
entry:
  %token = alloca %"class.std::__cxx11::basic_string", align 8
  call void @_ZNSt7__cxx1112basic_stringIcSt11char_traitsIcESaIcEEC1Ev(ptr noundef nonnull align 8 dereferenceable(32) %token) #24
  %call19 = call noundef i64 @_ZNKSt7__cxx1112basic_stringIcSt11char_traitsIcESaIcEE4sizeEv(ptr noundef nonnull align 8 dereferenceable(32) %s) #24
  %cmp20.not = icmp eq i64 %call19, 0
  br i1 %cmp20.not, label %for.end, label %for.body.lr.ph

for.body.lr.ph:                                   ; preds = %entry
  %_M_finish.i = getelementptr inbounds i8, ptr %elems, i64 8
  %_M_end_of_storage.i = getelementptr inbounds i8, ptr %elems, i64 16
  br label %for.body

for.body:                                         ; preds = %for.body.lr.ph, %for.inc
  %escaping.022 = phi i8 [ 0, %for.body.lr.ph ], [ %escaping.2, %for.inc ]
  %i.021 = phi i64 [ 0, %for.body.lr.ph ], [ %inc, %for.inc ]
  %call1 = call noundef nonnull align 1 dereferenceable(1) ptr @_ZNKSt7__cxx1112basic_stringIcSt11char_traitsIcESaIcEEixEm(ptr noundef nonnull align 8 dereferenceable(32) %s, i64 noundef %i.021) #24
  %0 = load i8, ptr %call1, align 1
  %1 = and i8 %escaping.022, 1
  %tobool.not = icmp eq i8 %1, 0
  br i1 %tobool.not, label %if.else, label %if.end14

if.else:                                          ; preds = %for.body
  switch i8 %0, label %if.end14 [
    i8 92, label %for.inc
    i8 32, label %if.then9
  ]

if.then9:                                         ; preds = %if.else
  %call10 = call noundef zeroext i1 @_ZNKSt7__cxx1112basic_stringIcSt11char_traitsIcESaIcEE5emptyEv(ptr noundef nonnull align 8 dereferenceable(32) %token) #24
  br i1 %call10, label %if.end, label %if.then11

if.then11:                                        ; preds = %if.then9
  %2 = load ptr, ptr %_M_finish.i, align 8
  %3 = load ptr, ptr %_M_end_of_storage.i, align 8
  %cmp.not.i = icmp eq ptr %2, %3
  br i1 %cmp.not.i, label %if.else.i, label %if.then.i

if.then.i:                                        ; preds = %if.then11
  invoke void @_ZNSt7__cxx1112basic_stringIcSt11char_traitsIcESaIcEEC1ERKS4_(ptr noundef nonnull align 8 dereferenceable(32) %2, ptr noundef nonnull align 8 dereferenceable(32) %token)
          to label %.noexc unwind label %lpad.loopexit

.noexc:                                           ; preds = %if.then.i
  %4 = load ptr, ptr %_M_finish.i, align 8
  %incdec.ptr.i = getelementptr inbounds i8, ptr %4, i64 32
  store ptr %incdec.ptr.i, ptr %_M_finish.i, align 8
  br label %if.end

if.else.i:                                        ; preds = %if.then11
  invoke void @_ZNSt6vectorINSt7__cxx1112basic_stringIcSt11char_traitsIcESaIcEEESaIS5_EE17_M_realloc_insertIJRKS5_EEEvN9__gnu_cxx17__normal_iteratorIPS5_S7_EEDpOT_(ptr noundef nonnull align 8 dereferenceable(24) %elems, ptr %2, ptr noundef nonnull align 8 dereferenceable(32) %token)
          to label %if.end unwind label %lpad.loopexit

lpad.loopexit:                                    ; preds = %if.end14, %if.then.i, %if.else.i
  %lpad.loopexit17 = landingpad { ptr, i32 }
          cleanup
  br label %lpad

lpad.loopexit.split-lp:                           ; preds = %if.then.i11, %if.else.i13
  %lpad.loopexit.split-lp18 = landingpad { ptr, i32 }
          cleanup
  br label %lpad

lpad:                                             ; preds = %lpad.loopexit.split-lp, %lpad.loopexit
  %lpad.phi = phi { ptr, i32 } [ %lpad.loopexit17, %lpad.loopexit ], [ %lpad.loopexit.split-lp18, %lpad.loopexit.split-lp ]
  call void @_ZNSt7__cxx1112basic_stringIcSt11char_traitsIcESaIcEED1Ev(ptr noundef nonnull align 8 dereferenceable(32) %token) #24
  resume { ptr, i32 } %lpad.phi

if.end:                                           ; preds = %.noexc, %if.else.i, %if.then9
  call void @_ZNSt7__cxx1112basic_stringIcSt11char_traitsIcESaIcEE5clearEv(ptr noundef nonnull align 8 dereferenceable(32) %token) #24
  br label %for.inc

if.end14:                                         ; preds = %if.else, %for.body
  %escaping.1 = phi i8 [ 0, %for.body ], [ %escaping.022, %if.else ]
  %call16 = invoke noundef nonnull align 8 dereferenceable(32) ptr @_ZNSt7__cxx1112basic_stringIcSt11char_traitsIcESaIcEEpLEc(ptr noundef nonnull align 8 dereferenceable(32) %token, i8 noundef signext %0)
          to label %for.inc unwind label %lpad.loopexit

for.inc:                                          ; preds = %if.else, %if.end14, %if.end
  %escaping.2 = phi i8 [ %escaping.1, %if.end14 ], [ %escaping.022, %if.end ], [ 1, %if.else ]
  %inc = add nuw i64 %i.021, 1
  %call = call noundef i64 @_ZNKSt7__cxx1112basic_stringIcSt11char_traitsIcESaIcEE4sizeEv(ptr noundef nonnull align 8 dereferenceable(32) %s) #24
  %cmp = icmp ult i64 %inc, %call
  br i1 %cmp, label %for.body, label %for.end, !llvm.loop !67

for.end:                                          ; preds = %for.inc, %entry
  %_M_finish.i8 = getelementptr inbounds i8, ptr %elems, i64 8
  %5 = load ptr, ptr %_M_finish.i8, align 8
  %_M_end_of_storage.i9 = getelementptr inbounds i8, ptr %elems, i64 16
  %6 = load ptr, ptr %_M_end_of_storage.i9, align 8
  %cmp.not.i10 = icmp eq ptr %5, %6
  br i1 %cmp.not.i10, label %if.else.i13, label %if.then.i11

if.then.i11:                                      ; preds = %for.end
  invoke void @_ZNSt7__cxx1112basic_stringIcSt11char_traitsIcESaIcEEC1ERKS4_(ptr noundef nonnull align 8 dereferenceable(32) %5, ptr noundef nonnull align 8 dereferenceable(32) %token)
          to label %.noexc14 unwind label %lpad.loopexit.split-lp

.noexc14:                                         ; preds = %if.then.i11
  %7 = load ptr, ptr %_M_finish.i8, align 8
  %incdec.ptr.i12 = getelementptr inbounds i8, ptr %7, i64 32
  store ptr %incdec.ptr.i12, ptr %_M_finish.i8, align 8
  br label %invoke.cont17

if.else.i13:                                      ; preds = %for.end
  invoke void @_ZNSt6vectorINSt7__cxx1112basic_stringIcSt11char_traitsIcESaIcEEESaIS5_EE17_M_realloc_insertIJRKS5_EEEvN9__gnu_cxx17__normal_iteratorIPS5_S7_EEDpOT_(ptr noundef nonnull align 8 dereferenceable(24) %elems, ptr %5, ptr noundef nonnull align 8 dereferenceable(32) %token)
          to label %invoke.cont17 unwind label %lpad.loopexit.split-lp

invoke.cont17:                                    ; preds = %.noexc14, %if.else.i13
  call void @_ZNSt7__cxx1112basic_stringIcSt11char_traitsIcESaIcEED1Ev(ptr noundef nonnull align 8 dereferenceable(32) %token) #24
  ret void
}